target datalayout = "e-m:e-p270:32:32-p271:32:32-p272:64:64-i64:64-i128:128-f80:128-n8:16:32:64-S128"
target triple = "x86_64-pc-linux-gnu"

%struct.rb_data_type_struct = type { ptr, %struct.anon.13, ptr, ptr, i64 }
%struct.anon.13 = type { ptr, ptr, ptr, ptr, [1 x ptr] }
%struct.ifaddrs = type { ptr, ptr, i32, ptr, ptr, %union.anon.12, ptr }
%union.anon.12 = type { ptr }
%struct.rb_ifaddr_tag = type { i32, ptr }

@rb_eTypeError = external global i64, align 8
@.str.16 = private unnamed_addr constant [21 x i8] c"uninitialized ifaddr\00", align 1
@ifaddr_type = internal constant %struct.rb_data_type_struct { ptr @.str.17, %struct.anon.13 { ptr null, ptr @ifaddr_free, ptr @ifaddr_memsize, ptr null, [1 x ptr] zeroinitializer }, ptr null, ptr null, i64 0 }, align 8

; Function Attrs: inlinehint nounwind sspstrong uwtable
define internal ptr @check_ifaddr(i64 noundef %0) #3 {
  %2 = alloca i64, align 8
  store i64 %0, ptr %2, align 8, !tbaa !6
  %3 = load i64, ptr %2, align 8, !tbaa !6
  %4 = call ptr @rb_check_typeddata(i64 noundef %3, ptr noundef @ifaddr_type)
  ret ptr %4
}

; Function Attrs: nounwind sspstrong uwtable
define internal ptr @get_ifaddr(i64 noundef %0) #0 {
  %2 = alloca i64, align 8
  %3 = alloca ptr, align 8
  store i64 %0, ptr %2, align 8, !tbaa !6
  call void @llvm.lifetime.start.p0(i64 8, ptr %3) #10
  %4 = load i64, ptr %2, align 8, !tbaa !6
  %5 = call ptr @check_ifaddr(i64 noundef %4)
  store ptr %5, ptr %3, align 8, !tbaa !28
  %6 = load ptr, ptr %3, align 8, !tbaa !28
  %7 = icmp ne ptr %6, null
  br i1 %7, label %10, label %8

8:                                                ; preds = %1
  %9 = load i64, ptr @rb_eTypeError, align 8, !tbaa !6
  call void (i64, ptr, ...) @rb_raise(i64 noundef %9, ptr noundef @.str.16) #12
  unreachable

10:                                               ; preds = %1
  %11 = load ptr, ptr %3, align 8, !tbaa !28
  call void @llvm.lifetime.end.p0(i64 8, ptr %3) #10
  ret ptr %11
}

; Function Attrs: nounwind sspstrong uwtable
define internal ptr @get_ifaddrs(i64 noundef %0) #0 {
  %2 = alloca i64, align 8
  store i64 %0, ptr %2, align 8, !tbaa !6
  %3 = load i64, ptr %2, align 8, !tbaa !6
  %4 = call ptr @get_ifaddr(i64 noundef %3)
  %5 = getelementptr inbounds nuw %struct.rb_ifaddr_tag, ptr %4, i32 0, i32 1
  %6 = load ptr, ptr %5, align 8, !tbaa !23
  ret ptr %6
}

; Function Attrs: nounwind sspstrong uwtable
define internal i64 @ifaddr_addr(i64 noundef %0) #0 {
  %2 = alloca i64, align 8
  %3 = alloca i64, align 8
  %4 = alloca ptr, align 8
  %5 = alloca i32, align 4
  store i64 %0, ptr %3, align 8, !tbaa !6
  call void @llvm.lifetime.start.p0(i64 8, ptr %4) #10
  %6 = load i64, ptr %3, align 8, !tbaa !6
  %7 = call ptr @get_ifaddrs(i64 noundef %6)
  store ptr %7, ptr %4, align 8, !tbaa !10
  %8 = load ptr, ptr %4, align 8, !tbaa !10
  %9 = getelementptr inbounds nuw %struct.ifaddrs, ptr %8, i32 0, i32 3
  %10 = load ptr, ptr %9, align 8, !tbaa !19
  %11 = icmp ne ptr %10, null
  br i1 %11, label %12, label %21

12:                                               ; preds = %1
  %13 = load ptr, ptr %4, align 8, !tbaa !10
  %14 = getelementptr inbounds nuw %struct.ifaddrs, ptr %13, i32 0, i32 3
  %15 = load ptr, ptr %14, align 8, !tbaa !19
  %16 = load ptr, ptr %4, align 8, !tbaa !10
  %17 = getelementptr inbounds nuw %struct.ifaddrs, ptr %16, i32 0, i32 3
  %18 = load ptr, ptr %17, align 8, !tbaa !19
  %19 = call i32 @rsock_sockaddr_len(ptr noundef %18)
  %20 = call i64 @rsock_sockaddr_obj(ptr noundef %15, i32 noundef %19)
  store i64 %20, ptr %2, align 8
  store i32 1, ptr %5, align 4
  br label %22

21:                                               ; preds = %1
  store i64 4, ptr %2, align 8
  store i32 1, ptr %5, align 4
  br label %22

22:                                               ; preds = %21, %12
  call void @llvm.lifetime.end.p0(i64 8, ptr %4) #10
  %23 = load i64, ptr %2, align 8
  ret i64 %23
}