; Function Attrs: nounwind sspstrong uwtable
define internal i64 @ifaddr_addr(i64 noundef %0) #0 {
  %2 = tail call ptr @rb_check_typeddata(i64 noundef %0, ptr noundef nonnull @ifaddr_type) #7
  %.not.i.i = icmp eq ptr %2, null
  br i1 %.not.i.i, label %3, label %get_ifaddrs.exit

3:                                                ; preds = %1
  %4 = load i64, ptr @rb_eTypeError, align 8, !tbaa !6
  tail call void (i64, ptr, ...) @rb_raise(i64 noundef %4, ptr noundef nonnull @.str.16) #8
  unreachable

get_ifaddrs.exit:                                 ; preds = %1
  %5 = getelementptr inbounds nuw i8, ptr %2, i64 8
  %6 = load ptr, ptr %5, align 8, !tbaa !10
  %7 = getelementptr inbounds nuw i8, ptr %6, i64 24
  %8 = load ptr, ptr %7, align 8, !tbaa !20
  %.not = icmp eq ptr %8, null
  br i1 %.not, label %12, label %9

9:                                                ; preds = %get_ifaddrs.exit
  %10 = tail call i32 @rsock_sockaddr_len(ptr noundef nonnull %8) #7
  %11 = tail call i64 @rsock_sockaddr_obj(ptr noundef nonnull %8, i32 noundef %10) #7
  br label %12

12:                                               ; preds = %get_ifaddrs.exit, %9
  %.0 = phi i64 [ %11, %9 ], [ 4, %get_ifaddrs.exit ]
  ret i64 %.0
}